target datalayout = "e-m:e-p270:32:32-p271:32:32-p272:64:64-i64:64-i128:128-f80:128-n8:16:32:64-S128"
target triple = "x86_64-pc-linux-gnu"

%struct.lzma_outq = type { ptr, ptr, i64, ptr, i64, i64, i32, i32, i32 }
%struct.lzma_outbuf_s = type { ptr, ptr, i64, i64, i64, i8, i32, i64, i64, [0 x i8] }

; Function Attrs: nounwind uwtable
define dso_local void @lzma_outq_enable_partial_output(ptr noundef %0, ptr noundef %1) #0 {
  %3 = alloca ptr, align 8
  %4 = alloca ptr, align 8
  store ptr %0, ptr %3, align 8, !tbaa !10
  store ptr %1, ptr %4, align 8, !tbaa !10
  %5 = load ptr, ptr %3, align 8, !tbaa !10
  %6 = getelementptr inbounds nuw %struct.lzma_outq, ptr %5, i32 0, i32 0
  %7 = load ptr, ptr %6, align 8, !tbaa !21
  %8 = icmp ne ptr %7, null
  br i1 %8, label %9, label %34

9:                                                ; preds = %2
  %10 = load ptr, ptr %3, align 8, !tbaa !10
  %11 = getelementptr inbounds nuw %struct.lzma_outq, ptr %10, i32 0, i32 0
  %12 = load ptr, ptr %11, align 8, !tbaa !21
  %13 = getelementptr inbounds nuw %struct.lzma_outbuf_s, ptr %12, i32 0, i32 5
  %14 = load i8, ptr %13, align 8, !tbaa !30, !range !32, !noundef !33
  %15 = trunc i8 %14 to i1
  br i1 %15, label %34, label %16

16:                                               ; preds = %9
  %17 = load ptr, ptr %3, align 8, !tbaa !10
  %18 = getelementptr inbounds nuw %struct.lzma_outq, ptr %17, i32 0, i32 0
  %19 = load ptr, ptr %18, align 8, !tbaa !21
  %20 = getelementptr inbounds nuw %struct.lzma_outbuf_s, ptr %19, i32 0, i32 1
  %21 = load ptr, ptr %20, align 8, !tbaa !10
  %22 = icmp ne ptr %21, null
  br i1 %22, label %23, label %34

23:                                               ; preds = %16
  %24 = load ptr, ptr %4, align 8, !tbaa !10
  %25 = load ptr, ptr %3, align 8, !tbaa !10
  %26 = getelementptr inbounds nuw %struct.lzma_outq, ptr %25, i32 0, i32 0
  %27 = load ptr, ptr %26, align 8, !tbaa !21
  %28 = getelementptr inbounds nuw %struct.lzma_outbuf_s, ptr %27, i32 0, i32 1
  %29 = load ptr, ptr %28, align 8, !tbaa !10
  call void %24(ptr noundef %29)
  %30 = load ptr, ptr %3, align 8, !tbaa !10
  %31 = getelementptr inbounds nuw %struct.lzma_outq, ptr %30, i32 0, i32 0
  %32 = load ptr, ptr %31, align 8, !tbaa !21
  %33 = getelementptr inbounds nuw %struct.lzma_outbuf_s, ptr %32, i32 0, i32 1
  store ptr null, ptr %33, align 8, !tbaa !10
  br label %34

34:                                               ; preds = %23, %16, %9, %2
  ret void
}