; Function Attrs: nounwind uwtable
define dso_local void @lzma_outq_enable_partial_output(ptr noundef readonly captures(none) %0, ptr noundef readonly captures(none) %1) local_unnamed_addr #1 {
  %3 = load ptr, ptr %0, align 8, !tbaa !19
  %.not = icmp eq ptr %3, null
  br i1 %.not, label %14, label %4

4:                                                ; preds = %2
  %5 = getelementptr inbounds nuw i8, ptr %3, i64 40
  %6 = load i8, ptr %5, align 8, !tbaa !29, !range !32, !noundef !33
  %7 = trunc nuw i8 %6 to i1
  br i1 %7, label %14, label %8

8:                                                ; preds = %4
  %9 = getelementptr inbounds nuw i8, ptr %3, i64 8
  %10 = load ptr, ptr %9, align 8, !tbaa !28
  %.not7 = icmp eq ptr %10, null
  br i1 %.not7, label %14, label %11

11:                                               ; preds = %8
  tail call void %1(ptr noundef nonnull %10) #6
  %12 = load ptr, ptr %0, align 8, !tbaa !19
  %13 = getelementptr inbounds nuw i8, ptr %12, i64 8
  store ptr null, ptr %13, align 8, !tbaa !28
  br label %14

14:                                               ; preds = %11, %8, %4, %2
  ret void
}